target datalayout = "e-m:e-p270:32:32-p271:32:32-p272:64:64-i64:64-i128:128-f80:128-n8:16:32:64-S128"
target triple = "x86_64-pc-linux-gnu"

%struct.H5VL_object_t = type { ptr, ptr, i64 }

@H5_libinit_g = external global i8, align 1
@H5_libterm_g = external global i8, align 1
@.str = private unnamed_addr constant [97 x i8] c"generated/home/dtcxzyw/WorkSpace/Projects/compilers/llvm-opt-benchmark/bench/hdf5/hdf5/src/H5O.c\00", align 1
@H5E_FUNC_g = external global i64, align 8
@H5E_CANTINIT_g = external global i64, align 8
@.str.1 = private unnamed_addr constant [30 x i8] c"library initialization failed\00", align 1
@H5E_CANTSET_g = external global i64, align 8
@.str.2 = private unnamed_addr constant [22 x i8] c"can't set API context\00", align 1
@H5E_OHDR_g = external global i64, align 8
@.str.6 = private unnamed_addr constant [9 x i8] c"app_file\00", align 1
@.str.7 = private unnamed_addr constant [9 x i8] c"app_func\00", align 1
@.str.8 = private unnamed_addr constant [9 x i8] c"app_line\00", align 1
@.str.12 = private unnamed_addr constant [6 x i8] c"es_id\00", align 1
@H5E_CANTINSERT_g = external global i64, align 8
@.str.14 = private unnamed_addr constant [34 x i8] c"can't insert token into event set\00", align 1
@H5E_CANTFLUSH_g = external global i64, align 8
@__func__.H5Oflush_async = private unnamed_addr constant [15 x i8] c"H5Oflush_async\00", align 1
@.str.34 = private unnamed_addr constant [38 x i8] c"unable to asynchronously flush object\00", align 1
@.str.35 = private unnamed_addr constant [9 x i8] c"*s*sIuii\00", align 1
@.str.36 = private unnamed_addr constant [7 x i8] c"obj_id\00", align 1

; Function Attrs: nounwind uwtable
define i32 @H5Oflush_async(ptr noundef %0, ptr noundef %1, i32 noundef %2, i64 noundef %3, i64 noundef %4) #0 {
  %6 = alloca ptr, align 8
  %7 = alloca ptr, align 8
  %8 = alloca i32, align 4
  %9 = alloca i64, align 8
  %10 = alloca i64, align 8
  %11 = alloca ptr, align 8
  %12 = alloca ptr, align 8
  %13 = alloca ptr, align 8
  %14 = alloca i32, align 4
  %15 = alloca i8, align 1
  %16 = alloca i8, align 1
  store ptr %0, ptr %6, align 8
  store ptr %1, ptr %7, align 8
  store i32 %2, ptr %8, align 4
  store i64 %3, ptr %9, align 8
  store i64 %4, ptr %10, align 8
  store ptr null, ptr %11, align 8
  store ptr null, ptr %12, align 8
  store ptr null, ptr %13, align 8
  store i32 0, ptr %14, align 4
  store i8 0, ptr %15, align 1
  store i8 0, ptr %16, align 1
  %17 = load i8, ptr @H5_libinit_g, align 1
  %18 = trunc i8 %17 to i1
  br i1 %18, label %23, label %19

19:                                               ; preds = %5
  %20 = load i8, ptr @H5_libterm_g, align 1
  %21 = trunc i8 %20 to i1
  %22 = xor i1 %21, true
  br label %23

23:                                               ; preds = %19, %5
  %24 = phi i1 [ false, %5 ], [ %22, %19 ]
  %25 = xor i1 %24, true
  %26 = xor i1 %25, true
  %27 = zext i1 %26 to i32
  %28 = sext i32 %27 to i64
  %29 = icmp ne i64 %28, 0
  br i1 %29, label %30, label %54

30:                                               ; preds = %23
  %31 = call i32 @H5_init_library()
  %32 = icmp slt i32 %31, 0
  %33 = xor i1 %32, true
  %34 = xor i1 %33, true
  %35 = zext i1 %34 to i32
  %36 = sext i32 %35 to i64
  %37 = icmp ne i64 %36, 0
  br i1 %37, label %38, label %53

38:                                               ; preds = %30
  br label %39

39:                                               ; preds = %38
  br label %40

40:                                               ; preds = %39
  br label %41

41:                                               ; preds = %40
  %42 = load i64, ptr @H5E_FUNC_g, align 8
  %43 = load i64, ptr @H5E_CANTINIT_g, align 8
  %44 = call i32 (ptr, ptr, i32, i64, i64, ptr, ...) @H5E_printf_stack(ptr noundef @.str, ptr noundef @__func__.H5Oflush_async, i32 noundef 664, i64 noundef %42, i64 noundef %43, ptr noundef @.str.1)
  br label %45

45:                                               ; preds = %41
  store i8 1, ptr %16, align 1
  %46 = load i8, ptr %16, align 1
  %47 = trunc i8 %46 to i1
  %48 = zext i1 %47 to i8
  store i8 %48, ptr %16, align 1
  br label %49

49:                                               ; preds = %45
  br label %50

50:                                               ; preds = %49
  store i32 -1, ptr %14, align 4
  br label %136

51:                                               ; No predecessors!
  br label %52

52:                                               ; preds = %51
  br label %53

53:                                               ; preds = %52, %30
  br label %54

54:                                               ; preds = %53, %23
  %55 = call i32 @H5CX_push()
  %56 = icmp slt i32 %55, 0
  %57 = xor i1 %56, true
  %58 = xor i1 %57, true
  %59 = zext i1 %58 to i32
  %60 = sext i32 %59 to i64
  %61 = icmp ne i64 %60, 0
  br i1 %61, label %62, label %77

62:                                               ; preds = %54
  br label %63

63:                                               ; preds = %62
  br label %64

64:                                               ; preds = %63
  br label %65

65:                                               ; preds = %64
  %66 = load i64, ptr @H5E_FUNC_g, align 8
  %67 = load i64, ptr @H5E_CANTSET_g, align 8
  %68 = call i32 (ptr, ptr, i32, i64, i64, ptr, ...) @H5E_printf_stack(ptr noundef @.str, ptr noundef @__func__.H5Oflush_async, i32 noundef 664, i64 noundef %66, i64 noundef %67, ptr noundef @.str.2)
  br label %69

69:                                               ; preds = %65
  store i8 1, ptr %16, align 1
  %70 = load i8, ptr %16, align 1
  %71 = trunc i8 %70 to i1
  %72 = zext i1 %71 to i8
  store i8 %72, ptr %16, align 1
  br label %73

73:                                               ; preds = %69
  br label %74

74:                                               ; preds = %73
  store i32 -1, ptr %14, align 4
  br label %136

75:                                               ; No predecessors!
  br label %76

76:                                               ; preds = %75
  br label %78

77:                                               ; preds = %54
  store i8 1, ptr %15, align 1
  br label %78

78:                                               ; preds = %77, %76
  %79 = call i32 @H5E_clear_stack()
  %80 = load i64, ptr %10, align 8
  %81 = icmp ne i64 0, %80
  br i1 %81, label %82, label %83

82:                                               ; preds = %78
  store ptr %12, ptr %13, align 8
  br label %83

83:                                               ; preds = %82, %78
  %84 = load i64, ptr %9, align 8
  %85 = load ptr, ptr %13, align 8
  %86 = call i32 @H5O__flush_api_common(i64 noundef %84, ptr noundef %85, ptr noundef %11)
  %87 = icmp slt i32 %86, 0
  br i1 %87, label %88, label %103

88:                                               ; preds = %83
  br label %89

89:                                               ; preds = %88
  br label %90

90:                                               ; preds = %89
  br label %91

91:                                               ; preds = %90
  %92 = load i64, ptr @H5E_OHDR_g, align 8
  %93 = load i64, ptr @H5E_CANTFLUSH_g, align 8
  %94 = call i32 (ptr, ptr, i32, i64, i64, ptr, ...) @H5E_printf_stack(ptr noundef @.str, ptr noundef @__func__.H5Oflush_async, i32 noundef 672, i64 noundef %92, i64 noundef %93, ptr noundef @.str.34)
  br label %95

95:                                               ; preds = %91
  store i8 1, ptr %16, align 1
  %96 = load i8, ptr %16, align 1
  %97 = trunc i8 %96 to i1
  %98 = zext i1 %97 to i8
  store i8 %98, ptr %16, align 1
  br label %99

99:                                               ; preds = %95
  br label %100

100:                                              ; preds = %99
  store i32 -1, ptr %14, align 4
  br label %136

101:                                              ; No predecessors!
  br label %102

102:                                              ; preds = %101
  br label %103

103:                                              ; preds = %102, %83
  %104 = load ptr, ptr %12, align 8
  %105 = icmp ne ptr null, %104
  br i1 %105, label %106, label %135

106:                                              ; preds = %103
  %107 = load i64, ptr %10, align 8
  %108 = load ptr, ptr %11, align 8
  %109 = getelementptr inbounds %struct.H5VL_object_t, ptr %108, i32 0, i32 1
  %110 = load ptr, ptr %109, align 8
  %111 = load ptr, ptr %12, align 8
  %112 = load ptr, ptr %6, align 8
  %113 = load ptr, ptr %7, align 8
  %114 = load i32, ptr %8, align 4
  %115 = load i64, ptr %9, align 8
  %116 = load i64, ptr %10, align 8
  %117 = call i32 (i64, ptr, ptr, ptr, ptr, ...) @H5ES_insert(i64 noundef %107, ptr noundef %110, ptr noundef %111, ptr noundef @__func__.H5Oflush_async, ptr noundef @.str.35, ptr noundef @.str.6, ptr noundef %112, ptr noundef @.str.7, ptr noundef %113, ptr noundef @.str.8, i32 noundef %114, ptr noundef @.str.36, i64 noundef %115, ptr noundef @.str.12, i64 noundef %116)
  %118 = icmp slt i32 %117, 0
  br i1 %118, label %119, label %134

119:                                              ; preds = %106
  br label %120

120:                                              ; preds = %119
  br label %121

121:                                              ; preds = %120
  br label %122

122:                                              ; preds = %121
  %123 = load i64, ptr @H5E_OHDR_g, align 8
  %124 = load i64, ptr @H5E_CANTINSERT_g, align 8
  %125 = call i32 (ptr, ptr, i32, i64, i64, ptr, ...) @H5E_printf_stack(ptr noundef @.str, ptr noundef @__func__.H5Oflush_async, i32 noundef 680, i64 noundef %123, i64 noundef %124, ptr noundef @.str.14)
  br label %126

126:                                              ; preds = %122
  store i8 1, ptr %16, align 1
  %127 = load i8, ptr %16, align 1
  %128 = trunc i8 %127 to i1
  %129 = zext i1 %128 to i8
  store i8 %129, ptr %16, align 1
  br label %130

130:                                              ; preds = %126
  br label %131

131:                                              ; preds = %130
  store i32 -1, ptr %14, align 4
  br label %136

132:                                              ; No predecessors!
  br label %133

133:                                              ; preds = %132
  br label %134

134:                                              ; preds = %133, %106
  br label %135

135:                                              ; preds = %134, %103
  br label %136

136:                                              ; preds = %135, %131, %100, %74, %50
  %137 = load i8, ptr %15, align 1
  %138 = trunc i8 %137 to i1
  %139 = xor i1 %138, true
  %140 = xor i1 %139, true
  %141 = zext i1 %140 to i32
  %142 = sext i32 %141 to i64
  %143 = icmp ne i64 %142, 0
  br i1 %143, label %144, label %146

144:                                              ; preds = %136
  %145 = call i32 @H5CX_pop(i1 noundef zeroext true)
  store i8 0, ptr %15, align 1
  br label %146

146:                                              ; preds = %144, %136
  %147 = load i8, ptr %16, align 1
  %148 = trunc i8 %147 to i1
  %149 = xor i1 %148, true
  %150 = xor i1 %149, true
  %151 = zext i1 %150 to i32
  %152 = sext i32 %151 to i64
  %153 = icmp ne i64 %152, 0
  br i1 %153, label %154, label %156

154:                                              ; preds = %146
  %155 = call i32 @H5E_dump_api_stack()
  br label %156

156:                                              ; preds = %154, %146
  %157 = load i32, ptr %14, align 4
  ret i32 %157
}